(lp0
(dp1
S'setup'
p2
(dp3
S'masscart'
p4
F1.0
sS'force'
p5
F10.0
sS'masspole'
p6
F0.1
sS'pole_length'
p7
F0.5
ssS'episodes'
p8
I1000
sS'max_r'
p9
F69.0
sS'algo'
p10
S'SARSA'
p11
sS'alpha'
p12
F0.0001
sS'max_steps'
p13
I1000
sS'order'
p14
I3
sa(dp15
g2
(dp16
g4
F2.0
sg5
F5.0
sg6
F0.2
sg7
F0.25
ssg8
I1000
sg9
F46.8
sg10
g11
sg12
F0.0001
sg13
I1000
sg14
I3
sa(dp17
g2
(dp18
g4
F5.0
sg5
F20.0
sg6
F0.1
sg7
F1.2
ssg8
I1000
sg9
F65.6
sg10
g11
sg12
F0.0001
sg13
I1000
sg14
I3
sa(dp19
g2
(dp20
g4
F2.0
sg5
F5.0
sg6
F0.5
sg7
F1.0
ssg8
I1000
sg9
F107.2
sg10
g11
sg12
F0.0001
sg13
I1000
sg14
I3
sa(dp21
g2
(dp22
g4
F5.0
sg5
F10.0
sg6
F1.0
sg7
F0.5
ssg8
I1000
sg9
F26.2
sg10
g11
sg12
F0.0001
sg13
I1000
sg14
I3
sa.