(lp0
(dp1
S'setup'
p2
S'./CustomEnvironments/maze1.txt'
p3
sS'episodes'
p4
I1000
sS'max_r'
p5
F78.2
sS'algo'
p6
S'REINFORCE'
p7
sS'alpha'
p8
F0.01
sS'max_steps'
p9
I1000
sS'order'
p10
I3
sa(dp11
g2
S'./CustomEnvironments/maze2.txt'
p12
sg4
I1000
sg5
F-6.2
sg6
g7
sg8
F0.01
sg9
I1000
sg10
I3
sa(dp13
g2
S'./CustomEnvironments/maze3.txt'
p14
sg4
I1000
sg5
F50.4
sg6
g7
sg8
F0.01
sg9
I1000
sg10
I3
sa(dp15
g2
S'./CustomEnvironments/maze4.txt'
p16
sg4
I1000
sg5
F-220.0
sg6
g7
sg8
F0.01
sg9
I1000
sg10
I3
sa.